target datalayout = "e-m:e-p270:32:32-p271:32:32-p272:64:64-i64:64-i128:128-f80:128-n8:16:32:64-S128"
target triple = "x86_64-pc-linux-gnu"

%struct.AVFilterContext = type { ptr, ptr, ptr, ptr, ptr, i32, ptr, ptr, i32, ptr, ptr, i32, i32, ptr, ptr, ptr, ptr, i32, ptr, i32, i32 }
%struct.CompandContext = type { ptr, i32, ptr, ptr, ptr, ptr, ptr, double, double, double, double, double, double, ptr, i32, i32, i32, i64, ptr }
%struct.AVFilterLink = type { ptr, ptr, ptr, ptr, i32, i32, i32, i32, %struct.AVRational, i32, i32, i32, %struct.AVChannelLayout, %struct.AVRational, ptr, i32, %struct.AVFilterFormatsConfig, %struct.AVFilterFormatsConfig }
%struct.AVChannelLayout = type { i32, i32, %union.anon.1, ptr }
%union.anon.1 = type { i64 }
%struct.AVRational = type { i32, i32 }
%struct.AVFilterFormatsConfig = type { ptr, ptr, ptr, ptr, ptr }
%struct.ChanParam = type { double, double, double }
%struct.CompandSegment = type { double, double, double, double }
%struct.AVFrame = type { [8 x ptr], [8 x i32], ptr, i32, i32, i32, i32, i32, %struct.AVRational, i64, i64, %struct.AVRational, i32, ptr, i32, i32, [8 x ptr], ptr, i32, ptr, i32, i32, i32, i32, i32, i32, i32, i64, ptr, i32, ptr, ptr, i64, i64, i64, i64, ptr, %struct.AVChannelLayout, i64 }

; Function Attrs: nounwind uwtable
define internal double @get_volume(ptr noundef %0, double noundef %1) #1 {
  %3 = alloca double, align 8
  %4 = alloca ptr, align 8
  %5 = alloca double, align 8
  %6 = alloca ptr, align 8
  %7 = alloca double, align 8
  %8 = alloca double, align 8
  %9 = alloca i32, align 4
  %10 = alloca i32, align 4
  store ptr %0, ptr %4, align 8, !tbaa !22
  store double %1, ptr %5, align 8, !tbaa !50
  call void @llvm.lifetime.start.p0(i64 8, ptr %6) #10
  call void @llvm.lifetime.start.p0(i64 8, ptr %7) #10
  call void @llvm.lifetime.start.p0(i64 8, ptr %8) #10
  call void @llvm.lifetime.start.p0(i64 4, ptr %9) #10
  %11 = load double, ptr %5, align 8, !tbaa !50
  %12 = load ptr, ptr %4, align 8, !tbaa !22
  %13 = getelementptr inbounds nuw %struct.CompandContext, ptr %12, i32 0, i32 7
  %14 = load double, ptr %13, align 8, !tbaa !78
  %15 = fcmp nsz olt double %11, %14
  br i1 %15, label %16, label %20

16:                                               ; preds = %2
  %17 = load ptr, ptr %4, align 8, !tbaa !22
  %18 = getelementptr inbounds nuw %struct.CompandContext, ptr %17, i32 0, i32 8
  %19 = load double, ptr %18, align 8, !tbaa !79
  store double %19, ptr %3, align 8
  store i32 1, ptr %10, align 4
  br label %73

20:                                               ; preds = %2
  %21 = load double, ptr %5, align 8, !tbaa !50
  %22 = call nsz double @llvm.log.f64(double %21)
  store double %22, ptr %7, align 8, !tbaa !50
  store i32 1, ptr %9, align 4, !tbaa !44
  br label %23

23:                                               ; preds = %42, %20
  %24 = load i32, ptr %9, align 4, !tbaa !44
  %25 = load ptr, ptr %4, align 8, !tbaa !22
  %26 = getelementptr inbounds nuw %struct.CompandContext, ptr %25, i32 0, i32 1
  %27 = load i32, ptr %26, align 8, !tbaa !57
  %28 = icmp slt i32 %24, %27
  br i1 %28, label %29, label %45

29:                                               ; preds = %23
  %30 = load double, ptr %7, align 8, !tbaa !50
  %31 = load ptr, ptr %4, align 8, !tbaa !22
  %32 = getelementptr inbounds nuw %struct.CompandContext, ptr %31, i32 0, i32 5
  %33 = load ptr, ptr %32, align 8, !tbaa !58
  %34 = load i32, ptr %9, align 4, !tbaa !44
  %35 = sext i32 %34 to i64
  %36 = getelementptr inbounds %struct.CompandSegment, ptr %33, i64 %35
  %37 = getelementptr inbounds nuw %struct.CompandSegment, ptr %36, i32 0, i32 0
  %38 = load double, ptr %37, align 8, !tbaa !66
  %39 = fcmp nsz ole double %30, %38
  br i1 %39, label %40, label %41

40:                                               ; preds = %29
  br label %45

41:                                               ; preds = %29
  br label %42

42:                                               ; preds = %41
  %43 = load i32, ptr %9, align 4, !tbaa !44
  %44 = add nsw i32 %43, 1
  store i32 %44, ptr %9, align 4, !tbaa !44
  br label %23, !llvm.loop !100

45:                                               ; preds = %40, %23
  %46 = load ptr, ptr %4, align 8, !tbaa !22
  %47 = getelementptr inbounds nuw %struct.CompandContext, ptr %46, i32 0, i32 5
  %48 = load ptr, ptr %47, align 8, !tbaa !58
  %49 = load i32, ptr %9, align 4, !tbaa !44
  %50 = sub nsw i32 %49, 1
  %51 = sext i32 %50 to i64
  %52 = getelementptr inbounds %struct.CompandSegment, ptr %48, i64 %51
  store ptr %52, ptr %6, align 8, !tbaa !101
  %53 = load ptr, ptr %6, align 8, !tbaa !101
  %54 = getelementptr inbounds nuw %struct.CompandSegment, ptr %53, i32 0, i32 0
  %55 = load double, ptr %54, align 8, !tbaa !66
  %56 = load double, ptr %7, align 8, !tbaa !50
  %57 = fsub nsz double %56, %55
  store double %57, ptr %7, align 8, !tbaa !50
  %58 = load ptr, ptr %6, align 8, !tbaa !101
  %59 = getelementptr inbounds nuw %struct.CompandSegment, ptr %58, i32 0, i32 1
  %60 = load double, ptr %59, align 8, !tbaa !68
  %61 = load double, ptr %7, align 8, !tbaa !50
  %62 = load ptr, ptr %6, align 8, !tbaa !101
  %63 = getelementptr inbounds nuw %struct.CompandSegment, ptr %62, i32 0, i32 2
  %64 = load double, ptr %63, align 8, !tbaa !75
  %65 = load double, ptr %7, align 8, !tbaa !50
  %66 = load ptr, ptr %6, align 8, !tbaa !101
  %67 = getelementptr inbounds nuw %struct.CompandSegment, ptr %66, i32 0, i32 3
  %68 = load double, ptr %67, align 8, !tbaa !76
  %69 = call nsz double @llvm.fmuladd.f64(double %64, double %65, double %68)
  %70 = call nsz double @llvm.fmuladd.f64(double %61, double %69, double %60)
  store double %70, ptr %8, align 8, !tbaa !50
  %71 = load double, ptr %8, align 8, !tbaa !50
  %72 = call nsz double @llvm.exp.f64(double %71)
  store double %72, ptr %3, align 8
  store i32 1, ptr %10, align 4
  br label %73

73:                                               ; preds = %45, %16
  call void @llvm.lifetime.end.p0(i64 4, ptr %9) #10
  call void @llvm.lifetime.end.p0(i64 8, ptr %8) #10
  call void @llvm.lifetime.end.p0(i64 8, ptr %7) #10
  call void @llvm.lifetime.end.p0(i64 8, ptr %6) #10
  %74 = load double, ptr %3, align 8
  ret double %74
}

; Function Attrs: nounwind uwtable
define internal void @update_volume(ptr noundef %0, double noundef %1) #1 {
  %3 = alloca ptr, align 8
  %4 = alloca double, align 8
  %5 = alloca double, align 8
  store ptr %0, ptr %3, align 8, !tbaa !80
  store double %1, ptr %4, align 8, !tbaa !50
  call void @llvm.lifetime.start.p0(i64 8, ptr %5) #10
  %6 = load double, ptr %4, align 8, !tbaa !50
  %7 = load ptr, ptr %3, align 8, !tbaa !80
  %8 = getelementptr inbounds nuw %struct.ChanParam, ptr %7, i32 0, i32 2
  %9 = load double, ptr %8, align 8, !tbaa !82
  %10 = fsub nsz double %6, %9
  store double %10, ptr %5, align 8, !tbaa !50
  %11 = load double, ptr %5, align 8, !tbaa !50
  %12 = fcmp nsz ogt double %11, 0.000000e+00
  br i1 %12, label %13, label %22

13:                                               ; preds = %2
  %14 = load double, ptr %5, align 8, !tbaa !50
  %15 = load ptr, ptr %3, align 8, !tbaa !80
  %16 = getelementptr inbounds nuw %struct.ChanParam, ptr %15, i32 0, i32 0
  %17 = load double, ptr %16, align 8, !tbaa !59
  %18 = load ptr, ptr %3, align 8, !tbaa !80
  %19 = getelementptr inbounds nuw %struct.ChanParam, ptr %18, i32 0, i32 2
  %20 = load double, ptr %19, align 8, !tbaa !82
  %21 = call nsz double @llvm.fmuladd.f64(double %14, double %17, double %20)
  store double %21, ptr %19, align 8, !tbaa !82
  br label %31

22:                                               ; preds = %2
  %23 = load double, ptr %5, align 8, !tbaa !50
  %24 = load ptr, ptr %3, align 8, !tbaa !80
  %25 = getelementptr inbounds nuw %struct.ChanParam, ptr %24, i32 0, i32 1
  %26 = load double, ptr %25, align 8, !tbaa !63
  %27 = load ptr, ptr %3, align 8, !tbaa !80
  %28 = getelementptr inbounds nuw %struct.ChanParam, ptr %27, i32 0, i32 2
  %29 = load double, ptr %28, align 8, !tbaa !82
  %30 = call nsz double @llvm.fmuladd.f64(double %23, double %26, double %29)
  store double %30, ptr %28, align 8, !tbaa !82
  br label %31

31:                                               ; preds = %22, %13
  call void @llvm.lifetime.end.p0(i64 8, ptr %5) #10
  ret void
}

; Function Attrs: nounwind uwtable
define internal i32 @compand_nodelay(ptr noundef %0, ptr noundef %1) #1 {
  %3 = alloca i32, align 4
  %4 = alloca ptr, align 8
  %5 = alloca ptr, align 8
  %6 = alloca ptr, align 8
  %7 = alloca ptr, align 8
  %8 = alloca i32, align 4
  %9 = alloca i32, align 4
  %10 = alloca ptr, align 8
  %11 = alloca i32, align 4
  %12 = alloca i32, align 4
  %13 = alloca i32, align 4
  %14 = alloca i32, align 4
  %15 = alloca ptr, align 8
  %16 = alloca ptr, align 8
  %17 = alloca ptr, align 8
  store ptr %0, ptr %4, align 8, !tbaa !4
  store ptr %1, ptr %5, align 8, !tbaa !33
  call void @llvm.lifetime.start.p0(i64 8, ptr %6) #10
  %18 = load ptr, ptr %4, align 8, !tbaa !4
  %19 = getelementptr inbounds nuw %struct.AVFilterContext, ptr %18, i32 0, i32 9
  %20 = load ptr, ptr %19, align 8, !tbaa !9
  store ptr %20, ptr %6, align 8, !tbaa !22
  call void @llvm.lifetime.start.p0(i64 8, ptr %7) #10
  %21 = load ptr, ptr %4, align 8, !tbaa !4
  %22 = getelementptr inbounds nuw %struct.AVFilterContext, ptr %21, i32 0, i32 4
  %23 = load ptr, ptr %22, align 8, !tbaa !45
  %24 = getelementptr inbounds ptr, ptr %23, i64 0
  %25 = load ptr, ptr %24, align 8, !tbaa !31
  store ptr %25, ptr %7, align 8, !tbaa !31
  call void @llvm.lifetime.start.p0(i64 4, ptr %8) #10
  %26 = load ptr, ptr %7, align 8, !tbaa !31
  %27 = getelementptr inbounds nuw %struct.AVFilterLink, ptr %26, i32 0, i32 12
  %28 = getelementptr inbounds nuw %struct.AVChannelLayout, ptr %27, i32 0, i32 1
  %29 = load i32, ptr %28, align 4, !tbaa !52
  store i32 %29, ptr %8, align 4, !tbaa !44
  call void @llvm.lifetime.start.p0(i64 4, ptr %9) #10
  %30 = load ptr, ptr %5, align 8, !tbaa !33
  %31 = getelementptr inbounds nuw %struct.AVFrame, ptr %30, i32 0, i32 5
  %32 = load i32, ptr %31, align 8, !tbaa !92
  store i32 %32, ptr %9, align 4, !tbaa !44
  call void @llvm.lifetime.start.p0(i64 8, ptr %10) #10
  call void @llvm.lifetime.start.p0(i64 4, ptr %11) #10
  call void @llvm.lifetime.start.p0(i64 4, ptr %12) #10
  call void @llvm.lifetime.start.p0(i64 4, ptr %13) #10
  %33 = load ptr, ptr %5, align 8, !tbaa !33
  %34 = call i32 @av_frame_is_writable(ptr noundef %33)
  %35 = icmp ne i32 %34, 0
  br i1 %35, label %36, label %38

36:                                               ; preds = %2
  %37 = load ptr, ptr %5, align 8, !tbaa !33
  store ptr %37, ptr %10, align 8, !tbaa !33
  br label %58

38:                                               ; preds = %2
  %39 = load ptr, ptr %4, align 8, !tbaa !4
  %40 = getelementptr inbounds nuw %struct.AVFilterContext, ptr %39, i32 0, i32 7
  %41 = load ptr, ptr %40, align 8, !tbaa !106
  %42 = getelementptr inbounds ptr, ptr %41, i64 0
  %43 = load ptr, ptr %42, align 8, !tbaa !31
  %44 = load i32, ptr %9, align 4, !tbaa !44
  %45 = call ptr @ff_get_audio_buffer(ptr noundef %43, i32 noundef %44)
  store ptr %45, ptr %10, align 8, !tbaa !33
  %46 = load ptr, ptr %10, align 8, !tbaa !33
  %47 = icmp ne ptr %46, null
  br i1 %47, label %49, label %48

48:                                               ; preds = %38
  call void @av_frame_free(ptr noundef %5)
  store i32 -12, ptr %3, align 4
  store i32 1, ptr %14, align 4
  br label %131

49:                                               ; preds = %38
  %50 = load ptr, ptr %10, align 8, !tbaa !33
  %51 = load ptr, ptr %5, align 8, !tbaa !33
  %52 = call i32 @av_frame_copy_props(ptr noundef %50, ptr noundef %51)
  store i32 %52, ptr %13, align 4, !tbaa !44
  %53 = load i32, ptr %13, align 4, !tbaa !44
  %54 = icmp slt i32 %53, 0
  br i1 %54, label %55, label %57

55:                                               ; preds = %49
  call void @av_frame_free(ptr noundef %10)
  call void @av_frame_free(ptr noundef %5)
  %56 = load i32, ptr %13, align 4, !tbaa !44
  store i32 %56, ptr %3, align 4
  store i32 1, ptr %14, align 4
  br label %131

57:                                               ; preds = %49
  br label %58

58:                                               ; preds = %57, %36
  store i32 0, ptr %11, align 4, !tbaa !44
  br label %59

59:                                               ; preds = %115, %58
  %60 = load i32, ptr %11, align 4, !tbaa !44
  %61 = load i32, ptr %8, align 4, !tbaa !44
  %62 = icmp slt i32 %60, %61
  br i1 %62, label %63, label %118

63:                                               ; preds = %59
  call void @llvm.lifetime.start.p0(i64 8, ptr %15) #10
  %64 = load ptr, ptr %5, align 8, !tbaa !33
  %65 = getelementptr inbounds nuw %struct.AVFrame, ptr %64, i32 0, i32 2
  %66 = load ptr, ptr %65, align 8, !tbaa !95
  %67 = load i32, ptr %11, align 4, !tbaa !44
  %68 = sext i32 %67 to i64
  %69 = getelementptr inbounds ptr, ptr %66, i64 %68
  %70 = load ptr, ptr %69, align 8, !tbaa !51
  store ptr %70, ptr %15, align 8, !tbaa !96
  call void @llvm.lifetime.start.p0(i64 8, ptr %16) #10
  %71 = load ptr, ptr %10, align 8, !tbaa !33
  %72 = getelementptr inbounds nuw %struct.AVFrame, ptr %71, i32 0, i32 2
  %73 = load ptr, ptr %72, align 8, !tbaa !95
  %74 = load i32, ptr %11, align 4, !tbaa !44
  %75 = sext i32 %74 to i64
  %76 = getelementptr inbounds ptr, ptr %73, i64 %75
  %77 = load ptr, ptr %76, align 8, !tbaa !51
  store ptr %77, ptr %16, align 8, !tbaa !96
  call void @llvm.lifetime.start.p0(i64 8, ptr %17) #10
  %78 = load ptr, ptr %6, align 8, !tbaa !22
  %79 = getelementptr inbounds nuw %struct.CompandContext, ptr %78, i32 0, i32 6
  %80 = load ptr, ptr %79, align 8, !tbaa !56
  %81 = load i32, ptr %11, align 4, !tbaa !44
  %82 = sext i32 %81 to i64
  %83 = getelementptr inbounds %struct.ChanParam, ptr %80, i64 %82
  store ptr %83, ptr %17, align 8, !tbaa !80
  store i32 0, ptr %12, align 4, !tbaa !44
  br label %84

84:                                               ; preds = %111, %63
  %85 = load i32, ptr %12, align 4, !tbaa !44
  %86 = load i32, ptr %9, align 4, !tbaa !44
  %87 = icmp slt i32 %85, %86
  br i1 %87, label %88, label %114

88:                                               ; preds = %84
  %89 = load ptr, ptr %17, align 8, !tbaa !80
  %90 = load ptr, ptr %15, align 8, !tbaa !96
  %91 = load i32, ptr %12, align 4, !tbaa !44
  %92 = sext i32 %91 to i64
  %93 = getelementptr inbounds double, ptr %90, i64 %92
  %94 = load double, ptr %93, align 8, !tbaa !50
  %95 = call nsz double @llvm.fabs.f64(double %94)
  call void @update_volume(ptr noundef %89, double noundef %95)
  %96 = load ptr, ptr %15, align 8, !tbaa !96
  %97 = load i32, ptr %12, align 4, !tbaa !44
  %98 = sext i32 %97 to i64
  %99 = getelementptr inbounds double, ptr %96, i64 %98
  %100 = load double, ptr %99, align 8, !tbaa !50
  %101 = load ptr, ptr %6, align 8, !tbaa !22
  %102 = load ptr, ptr %17, align 8, !tbaa !80
  %103 = getelementptr inbounds nuw %struct.ChanParam, ptr %102, i32 0, i32 2
  %104 = load double, ptr %103, align 8, !tbaa !82
  %105 = call nsz double @get_volume(ptr noundef %101, double noundef %104)
  %106 = fmul nsz double %100, %105
  %107 = load ptr, ptr %16, align 8, !tbaa !96
  %108 = load i32, ptr %12, align 4, !tbaa !44
  %109 = sext i32 %108 to i64
  %110 = getelementptr inbounds double, ptr %107, i64 %109
  store double %106, ptr %110, align 8, !tbaa !50
  br label %111

111:                                              ; preds = %88
  %112 = load i32, ptr %12, align 4, !tbaa !44
  %113 = add nsw i32 %112, 1
  store i32 %113, ptr %12, align 4, !tbaa !44
  br label %84, !llvm.loop !107

114:                                              ; preds = %84
  call void @llvm.lifetime.end.p0(i64 8, ptr %17) #10
  call void @llvm.lifetime.end.p0(i64 8, ptr %16) #10
  call void @llvm.lifetime.end.p0(i64 8, ptr %15) #10
  br label %115

115:                                              ; preds = %114
  %116 = load i32, ptr %11, align 4, !tbaa !44
  %117 = add nsw i32 %116, 1
  store i32 %117, ptr %11, align 4, !tbaa !44
  br label %59, !llvm.loop !108

118:                                              ; preds = %59
  %119 = load ptr, ptr %5, align 8, !tbaa !33
  %120 = load ptr, ptr %10, align 8, !tbaa !33
  %121 = icmp ne ptr %119, %120
  br i1 %121, label %122, label %123

122:                                              ; preds = %118
  call void @av_frame_free(ptr noundef %5)
  br label %123

123:                                              ; preds = %122, %118
  %124 = load ptr, ptr %4, align 8, !tbaa !4
  %125 = getelementptr inbounds nuw %struct.AVFilterContext, ptr %124, i32 0, i32 7
  %126 = load ptr, ptr %125, align 8, !tbaa !106
  %127 = getelementptr inbounds ptr, ptr %126, i64 0
  %128 = load ptr, ptr %127, align 8, !tbaa !31
  %129 = load ptr, ptr %10, align 8, !tbaa !33
  %130 = call i32 @ff_filter_frame(ptr noundef %128, ptr noundef %129)
  store i32 %130, ptr %3, align 4
  store i32 1, ptr %14, align 4
  br label %131

131:                                              ; preds = %123, %55, %48
  call void @llvm.lifetime.end.p0(i64 4, ptr %13) #10
  call void @llvm.lifetime.end.p0(i64 4, ptr %12) #10
  call void @llvm.lifetime.end.p0(i64 4, ptr %11) #10
  call void @llvm.lifetime.end.p0(i64 8, ptr %10) #10
  call void @llvm.lifetime.end.p0(i64 4, ptr %9) #10
  call void @llvm.lifetime.end.p0(i64 4, ptr %8) #10
  call void @llvm.lifetime.end.p0(i64 8, ptr %7) #10
  call void @llvm.lifetime.end.p0(i64 8, ptr %6) #10
  %132 = load i32, ptr %3, align 4
  ret i32 %132
}