; Function Attrs: nounwind uwtable
define internal i32 @compand_nodelay(ptr noundef readonly captures(none) %0, ptr noundef %1) #2 {
  %3 = alloca ptr, align 8
  %4 = alloca ptr, align 8
  store ptr %1, ptr %3, align 8, !tbaa !94
  %5 = getelementptr inbounds nuw i8, ptr %0, i64 72
  %6 = load ptr, ptr %5, align 8, !tbaa !4
  %7 = getelementptr inbounds nuw i8, ptr %0, i64 32
  %8 = load ptr, ptr %7, align 8, !tbaa !38
  %9 = load ptr, ptr %8, align 8, !tbaa !39
  %10 = getelementptr inbounds nuw i8, ptr %9, i64 76
  %11 = load i32, ptr %10, align 4, !tbaa !43
  %12 = getelementptr inbounds nuw i8, ptr %1, i64 112
  %13 = load i32, ptr %12, align 8, !tbaa !49
  call void @llvm.lifetime.start.p0(i64 8, ptr nonnull %4) #12
  %14 = tail call i32 @av_frame_is_writable(ptr noundef %1) #12
  %.not = icmp eq i32 %14, 0
  br i1 %.not, label %15, label %25

15:                                               ; preds = %2
  %16 = getelementptr inbounds nuw i8, ptr %0, i64 56
  %17 = load ptr, ptr %16, align 8, !tbaa !95
  %18 = load ptr, ptr %17, align 8, !tbaa !39
  %19 = tail call ptr @ff_get_audio_buffer(ptr noundef %18, i32 noundef %13) #12
  store ptr %19, ptr %4, align 8, !tbaa !94
  %.not31 = icmp eq ptr %19, null
  br i1 %.not31, label %20, label %21

20:                                               ; preds = %15
  call void @av_frame_free(ptr noundef nonnull %3) #12
  br label %88

21:                                               ; preds = %15
  %22 = tail call i32 @av_frame_copy_props(ptr noundef nonnull %19, ptr noundef nonnull %1) #12
  %23 = icmp slt i32 %22, 0
  br i1 %23, label %24, label %25

24:                                               ; preds = %21
  call void @av_frame_free(ptr noundef nonnull %4) #12
  call void @av_frame_free(ptr noundef nonnull %3) #12
  br label %88

25:                                               ; preds = %2, %21
  %26 = phi ptr [ %19, %21 ], [ %1, %2 ]
  %27 = icmp sgt i32 %11, 0
  br i1 %27, label %.lr.ph, label %._crit_edge37

.lr.ph:                                           ; preds = %25
  %28 = getelementptr inbounds nuw i8, ptr %1, i64 96
  %29 = load ptr, ptr %28, align 8, !tbaa !52
  %30 = getelementptr inbounds nuw i8, ptr %26, i64 96
  %31 = load ptr, ptr %30, align 8, !tbaa !52
  %32 = getelementptr inbounds nuw i8, ptr %6, i64 48
  %33 = load ptr, ptr %32, align 8, !tbaa !53
  %34 = icmp sgt i32 %13, 0
  %35 = getelementptr inbounds nuw i8, ptr %6, i64 56
  %36 = getelementptr inbounds nuw i8, ptr %6, i64 8
  %37 = getelementptr inbounds nuw i8, ptr %6, i64 40
  %38 = getelementptr inbounds nuw i8, ptr %6, i64 64
  br i1 %34, label %update_volume.exit.lr.ph.us.preheader, label %._crit_edge37

update_volume.exit.lr.ph.us.preheader:            ; preds = %.lr.ph
  %wide.trip.count44 = zext nneg i32 %11 to i64
  %wide.trip.count = zext nneg i32 %13 to i64
  br label %update_volume.exit.lr.ph.us

update_volume.exit.lr.ph.us:                      ; preds = %update_volume.exit.lr.ph.us.preheader, %._crit_edge.us
  %indvars.iv41 = phi i64 [ 0, %update_volume.exit.lr.ph.us.preheader ], [ %indvars.iv.next42, %._crit_edge.us ]
  %39 = getelementptr inbounds nuw ptr, ptr %29, i64 %indvars.iv41
  %40 = load ptr, ptr %39, align 8, !tbaa !56
  %41 = getelementptr inbounds nuw ptr, ptr %31, i64 %indvars.iv41
  %42 = load ptr, ptr %41, align 8, !tbaa !56
  %43 = getelementptr inbounds nuw %struct.ChanParam, ptr %33, i64 %indvars.iv41
  %44 = getelementptr inbounds nuw i8, ptr %43, i64 16
  br label %update_volume.exit.us

update_volume.exit.us:                            ; preds = %update_volume.exit.lr.ph.us, %get_volume.exit.us
  %indvars.iv = phi i64 [ 0, %update_volume.exit.lr.ph.us ], [ %indvars.iv.next, %get_volume.exit.us ]
  %45 = getelementptr inbounds nuw double, ptr %40, i64 %indvars.iv
  %46 = load double, ptr %45, align 8, !tbaa !57
  %47 = tail call nsz double @llvm.fabs.f64(double %46)
  %48 = load double, ptr %44, align 8, !tbaa !58
  %49 = fsub nsz double %47, %48
  %50 = fcmp nsz ogt double %49, 0.000000e+00
  %.sink.in.i.idx.us = select i1 %50, i64 0, i64 8
  %.sink.in.i.us = getelementptr inbounds nuw i8, ptr %43, i64 %.sink.in.i.idx.us
  %.sink.i.us = load double, ptr %.sink.in.i.us, align 8, !tbaa !57
  %51 = tail call nsz double @llvm.fmuladd.f64(double %49, double %.sink.i.us, double %48)
  store double %51, ptr %44, align 8, !tbaa !58
  %52 = load double, ptr %45, align 8, !tbaa !57
  %53 = load double, ptr %35, align 8, !tbaa !60
  %54 = fcmp nsz olt double %51, %53
  br i1 %54, label %78, label %55

55:                                               ; preds = %update_volume.exit.us
  %56 = tail call nsz double @llvm.log.f64(double %51)
  %57 = load i32, ptr %36, align 8, !tbaa !61
  %58 = icmp sgt i32 %57, 1
  %59 = load ptr, ptr %37, align 8, !tbaa !62
  br i1 %58, label %.lr.ph.i.us, label %._crit_edge.i.us

.lr.ph.i.us:                                      ; preds = %55
  %wide.trip.count.i.us = zext nneg i32 %57 to i64
  br label %60

60:                                               ; preds = %64, %.lr.ph.i.us
  %indvars.iv.i.us = phi i64 [ 1, %.lr.ph.i.us ], [ %indvars.iv.next.i.us, %64 ]
  %61 = getelementptr inbounds nuw %struct.CompandSegment, ptr %59, i64 %indvars.iv.i.us
  %62 = load double, ptr %61, align 8, !tbaa !63
  %63 = fcmp nsz ugt double %56, %62
  br i1 %63, label %64, label %._crit_edge.loopexit.split.loop.exit.i.us

._crit_edge.loopexit.split.loop.exit.i.us:        ; preds = %60
  %.pre = and i64 %indvars.iv.i.us, 4294967295
  br label %._crit_edge.i.us

64:                                               ; preds = %60
  %indvars.iv.next.i.us = add nuw nsw i64 %indvars.iv.i.us, 1
  %exitcond.not.i.us = icmp eq i64 %indvars.iv.next.i.us, %wide.trip.count.i.us
  br i1 %exitcond.not.i.us, label %._crit_edge.i.us, label %60, !llvm.loop !65

._crit_edge.i.us:                                 ; preds = %64, %._crit_edge.loopexit.split.loop.exit.i.us, %55
  %.0.lcssa.i.us = phi i64 [ 1, %55 ], [ %.pre, %._crit_edge.loopexit.split.loop.exit.i.us ], [ %wide.trip.count.i.us, %64 ]
  %65 = getelementptr %struct.CompandSegment, ptr %59, i64 %.0.lcssa.i.us
  %66 = getelementptr i8, ptr %65, i64 -32
  %67 = load double, ptr %66, align 8, !tbaa !63
  %68 = fsub nsz double %56, %67
  %69 = getelementptr i8, ptr %65, i64 -24
  %70 = load double, ptr %69, align 8, !tbaa !67
  %71 = getelementptr i8, ptr %65, i64 -16
  %72 = load double, ptr %71, align 8, !tbaa !68
  %73 = getelementptr i8, ptr %65, i64 -8
  %74 = load double, ptr %73, align 8, !tbaa !69
  %75 = tail call nsz double @llvm.fmuladd.f64(double %72, double %68, double %74)
  %76 = tail call nsz double @llvm.fmuladd.f64(double %68, double %75, double %70)
  %77 = tail call nsz double @llvm.exp.f64(double %76)
  br label %get_volume.exit.us

78:                                               ; preds = %update_volume.exit.us
  %79 = load double, ptr %38, align 8, !tbaa !70
  br label %get_volume.exit.us

get_volume.exit.us:                               ; preds = %78, %._crit_edge.i.us
  %.020.i.us = phi nsz double [ %79, %78 ], [ %77, %._crit_edge.i.us ]
  %80 = fmul nsz double %52, %.020.i.us
  %81 = getelementptr inbounds nuw double, ptr %42, i64 %indvars.iv
  store double %80, ptr %81, align 8, !tbaa !57
  %indvars.iv.next = add nuw nsw i64 %indvars.iv, 1
  %exitcond.not = icmp eq i64 %indvars.iv.next, %wide.trip.count
  br i1 %exitcond.not, label %._crit_edge.us, label %update_volume.exit.us, !llvm.loop !96

._crit_edge.us:                                   ; preds = %get_volume.exit.us
  %indvars.iv.next42 = add nuw nsw i64 %indvars.iv41, 1
  %exitcond45.not = icmp eq i64 %indvars.iv.next42, %wide.trip.count44
  br i1 %exitcond45.not, label %._crit_edge37, label %update_volume.exit.lr.ph.us, !llvm.loop !97

._crit_edge37:                                    ; preds = %._crit_edge.us, %.lr.ph, %25
  %.not32 = icmp eq ptr %1, %26
  br i1 %.not32, label %83, label %82

82:                                               ; preds = %._crit_edge37
  call void @av_frame_free(ptr noundef nonnull %3) #12
  br label %83

83:                                               ; preds = %82, %._crit_edge37
  %84 = getelementptr inbounds nuw i8, ptr %0, i64 56
  %85 = load ptr, ptr %84, align 8, !tbaa !95
  %86 = load ptr, ptr %85, align 8, !tbaa !39
  %87 = call i32 @ff_filter_frame(ptr noundef %86, ptr noundef %26) #12
  br label %88

88:                                               ; preds = %83, %24, %20
  %.0 = phi i32 [ %87, %83 ], [ %22, %24 ], [ -12, %20 ]
  call void @llvm.lifetime.end.p0(i64 8, ptr nonnull %4) #12
  ret i32 %.0
}